(dp0
S'name'
p1
S'APP'
p2
sS'depth'
p3
I0
sS'attribute_id'
p4
I30
sS'samples'
p5
I701
sS'threshold'
p6
F0.39875000000000005
sS'children'
p7
(lp8
(dp9
g1
S'pMTOR'
p10
sg3
I1
sg4
I35
sg5
I319
sg6
F0.6028500000000001
sg7
(lp11
(dp12
g1
S'S6'
p13
sg3
I2
sg4
I48
sg5
I33
sg6
F0.37634999999999996
sg7
(lp14
(dp15
g3
I3
sS'label'
p16
F0.0
sg1
S'LEAF'
p17
sg5
I2
sg7
(lp18
sa(dp19
g3
I3
sg16
F1.0
sg1
g17
sg5
I31
sg7
(lp20
sasa(dp21
g1
S'GluR3'
p22
sg3
I2
sg4
I58
sg5
I286
sg6
F0.2044
sg7
(lp23
(dp24
g1
S'NR2B'
p25
sg3
I3
sg4
I38
sg5
I100
sg6
F0.4899
sg7
(lp26
(dp27
g3
I4
sg16
F1.0
sg1
g17
sg5
I17
sg7
(lp28
sa(dp29
g1
g2
sg3
I4
sg4
I30
sg5
I83
sg6
F0.36865000000000003
sg7
(lp30
(dp31
g1
S'AMPKA'
p32
sg3
I5
sg4
I37
sg5
I47
sg6
F0.3067
sg7
(lp33
(dp34
g3
I6
sg16
F1.0
sg1
g17
sg5
I2
sg7
(lp35
sa(dp36
g1
S'pCASP9'
p37
sg3
I6
sg4
I62
sg5
I45
sg6
F1.6652
sg7
(lp38
(dp39
g3
I7
sg16
F0.0
sg1
g17
sg5
I40
sg7
(lp40
sa(dp41
g1
S'pBRAF'
p42
sg3
I7
sg4
I6
sg5
I5
sg6
F0.20425
sg7
(lp43
(dp44
g3
I8
sg16
F1.0
sg1
g17
sg5
I2
sg7
(lp45
sa(dp46
g3
I8
sg16
F0.0
sg1
g17
sg5
I3
sg7
(lp47
sasasasa(dp48
g1
S'BDNF'
p49
sg3
I5
sg4
I2
sg5
I36
sg6
F0.3045
sg7
(lp50
(dp51
g1
S'ERK'
p52
sg3
I6
sg4
I24
sg5
I15
sg6
F1.5181
sg7
(lp53
(dp54
g3
I7
sg16
F0.0
sg1
g17
sg5
I1
sg7
(lp55
sa(dp56
g3
I7
sg16
F1.0
sg1
g17
sg5
I14
sg7
(lp57
sasa(dp58
g1
S'AKT'
p59
sg3
I6
sg4
I19
sg5
I21
sg6
F0.8672500000000001
sg7
(lp60
(dp61
g1
S'pAKT'
p62
sg3
I7
sg4
I5
sg5
I18
sg6
F0.2286
sg7
(lp63
(dp64
g3
I8
sg16
F1.0
sg1
g17
sg5
I1
sg7
(lp65
sa(dp66
g3
I8
sg16
F0.0
sg1
g17
sg5
I17
sg7
(lp67
sasa(dp68
g3
I7
sg16
F1.0
sg1
g17
sg5
I3
sg7
(lp69
sasasasasa(dp70
g1
g13
sg3
I3
sg4
I48
sg5
I186
sg6
F0.44489999999999996
sg7
(lp71
(dp72
g3
I4
sg16
F0.0
sg1
g17
sg5
I142
sg7
(lp73
sa(dp74
g1
S'PKCA'
p75
sg3
I4
sg4
I12
sg5
I44
sg6
F0.288
sg7
(lp76
(dp77
g1
S'GFAP'
p78
sg3
I5
sg4
I57
sg5
I14
sg6
F0.12405
sg7
(lp79
(dp80
g3
I6
sg16
F1.0
sg1
g17
sg5
I6
sg7
(lp81
sa(dp82
g3
I6
sg16
F0.0
sg1
g17
sg5
I8
sg7
(lp83
sasa(dp84
g3
I5
sg16
F0.0
sg1
g17
sg5
I30
sg7
(lp85
sasasasasa(dp86
g1
g32
sg3
I1
sg4
I37
sg5
I382
sg6
F0.3849
sg7
(lp87
(dp88
g1
S'pNUMB'
p89
sg3
I2
sg4
I39
sg5
I211
sg6
F0.36505
sg7
(lp90
(dp91
g1
S'P3525'
p92
sg3
I3
sg4
I61
sg5
I143
sg6
F0.23835
sg7
(lp93
(dp94
g3
I4
sg16
F0.0
sg1
g17
sg5
I2
sg7
(lp95
sa(dp96
g3
I4
sg16
F1.0
sg1
g17
sg5
I141
sg7
(lp97
sasa(dp98
g1
S'BAX'
p99
sg3
I3
sg4
I52
sg5
I68
sg6
F0.1776
sg7
(lp100
(dp101
g1
S'ARC'
p102
sg3
I4
sg4
I53
sg5
I37
sg6
F0.11545
sg7
(lp103
(dp104
g1
g89
sg3
I5
sg4
I39
sg5
I24
sg6
F0.4154
sg7
(lp105
(dp106
g1
S'JNK'
p107
sg3
I6
sg4
I26
sg5
I20
sg6
F0.323
sg7
(lp108
(dp109
g3
I7
sg16
F1.0
sg1
g17
sg5
I19
sg7
(lp110
sa(dp111
g3
I7
sg16
F0.0
sg1
g17
sg5
I1
sg7
(lp112
sasa(dp113
g3
I6
sg16
F0.0
sg1
g17
sg5
I4
sg7
(lp114
sasa(dp115
g1
g49
sg3
I5
sg4
I2
sg5
I13
sg6
F0.30845
sg7
(lp116
(dp117
g3
I6
sg16
F1.0
sg1
g17
sg5
I1
sg7
(lp118
sa(dp119
g3
I6
sg16
F0.0
sg1
g17
sg5
I12
sg7
(lp120
sasasa(dp121
g3
I4
sg16
F1.0
sg1
g17
sg5
I31
sg7
(lp122
sasasa(dp123
g1
g2
sg3
I2
sg4
I30
sg5
I171
sg6
F0.4587
sg7
(lp124
(dp125
g1
S'DYRK1A'
p126
sg3
I3
sg4
I0
sg5
I99
sg6
F0.31079999999999997
sg7
(lp127
(dp128
g1
g42
sg3
I4
sg4
I6
sg5
I17
sg6
F0.19624999999999998
sg7
(lp129
(dp130
g3
I5
sg16
F0.0
sg1
g17
sg5
I1
sg7
(lp131
sa(dp132
g3
I5
sg16
F1.0
sg1
g17
sg5
I16
sg7
(lp133
sasa(dp134
g1
S'AcetylH3K9'
p135
sg3
I4
sg4
I50
sg5
I82
sg6
F0.1388
sg7
(lp136
(dp137
g3
I5
sg16
F0.0
sg1
g17
sg5
I51
sg7
(lp138
sa(dp139
g1
S'SNCA'
p140
sg3
I5
sg4
I64
sg5
I31
sg6
F0.16715
sg7
(lp141
(dp142
g1
S'TRKA'
p143
sg3
I6
sg4
I28
sg5
I26
sg6
F0.9391
sg7
(lp144
(dp145
g3
I7
sg16
F0.0
sg1
g17
sg5
I23
sg7
(lp146
sa(dp147
g3
I7
sg16
F1.0
sg1
g17
sg5
I3
sg7
(lp148
sasa(dp149
g3
I6
sg16
F1.0
sg1
g17
sg5
I5
sg7
(lp150
sasasasa(dp151
g1
S'BRAF'
p152
sg3
I3
sg4
I20
sg5
I72
sg6
F0.48885
sg7
(lp153
(dp154
g1
S'pNR2A'
p155
sg3
I4
sg4
I15
sg5
I58
sg6
F1.15495
sg7
(lp156
(dp157
g3
I5
sg16
F1.0
sg1
g17
sg5
I57
sg7
(lp158
sa(dp159
g3
I5
sg16
F0.0
sg1
g17
sg5
I1
sg7
(lp160
sasa(dp161
g1
S'pJNK'
p162
sg3
I4
sg4
I11
sg5
I14
sg6
F0.3444
sg7
(lp163
(dp164
g1
S'pCREB'
p165
sg3
I5
sg4
I8
sg5
I7
sg6
F0.27205
sg7
(lp166
(dp167
g3
I6
sg16
F1.0
sg1
g17
sg5
I6
sg7
(lp168
sa(dp169
g3
I6
sg16
F0.0
sg1
g17
sg5
I1
sg7
(lp170
sasa(dp171
g3
I5
sg16
F0.0
sg1
g17
sg5
I7
sg7
(lp172
sasasasasas.