(dp0
S'name'
p1
S'APP'
p2
sS'depth'
p3
I0
sS'attribute_id'
p4
I30
sS'samples'
p5
I701
sS'threshold'
p6
F0.399
sS'children'
p7
(lp8
(dp9
g1
S'pMTOR'
p10
sg3
I1
sg4
I35
sg5
I319
sg6
F0.6064
sg7
(lp11
(dp12
g1
S'S6'
p13
sg3
I2
sg4
I48
sg5
I33
sg6
F0.3932
sg7
(lp14
(dp15
g3
I3
sS'label'
p16
S'0.0000'
p17
sg1
S'LEAF'
p18
sg5
I2
sg7
(lp19
sa(dp20
g3
I3
sg16
S'1.0000'
p21
sg1
g18
sg5
I31
sg7
(lp22
sasa(dp23
g1
S'GluR3'
p24
sg3
I2
sg4
I58
sg5
I286
sg6
F0.2046
sg7
(lp25
(dp26
g3
I3
sg16
S'0.0000'
p27
sg1
g18
sg5
I100
sg7
(lp28
sa(dp29
g3
I3
sg16
S'0.0000'
p30
sg1
g18
sg5
I186
sg7
(lp31
sasasa(dp32
g1
S'AMPKA'
p33
sg3
I1
sg4
I37
sg5
I382
sg6
F0.385
sg7
(lp34
(dp35
g1
S'pNUMB'
p36
sg3
I2
sg4
I39
sg5
I211
sg6
F0.3653
sg7
(lp37
(dp38
g3
I3
sg16
S'1.0000'
p39
sg1
g18
sg5
I143
sg7
(lp40
sa(dp41
g3
I3
sg16
S'1.0000'
p42
sg1
g18
sg5
I68
sg7
(lp43
sasa(dp44
g1
g2
sg3
I2
sg4
I30
sg5
I171
sg6
F0.4593
sg7
(lp45
(dp46
g3
I3
sg16
S'0.0000'
p47
sg1
g18
sg5
I99
sg7
(lp48
sa(dp49
g3
I3
sg16
S'1.0000'
p50
sg1
g18
sg5
I72
sg7
(lp51
sasasas.